target datalayout = "e-m:e-p270:32:32-p271:32:32-p272:64:64-i64:64-i128:128-f80:128-n8:16:32:64-S128"
target triple = "x86_64-pc-linux-gnu"

%struct.__ncnn_allocator_t = type { ptr, ptr, ptr }
%"class.ncnn::Mat" = type { ptr, ptr, i64, i32, ptr, i32, i32, i32, i32, i32, i64 }

; Function Attrs: mustprogress uwtable
define hidden ptr @ncnn_mat_create_3d(i32 noundef %0, i32 noundef %1, i32 noundef %2, ptr noundef %3) #1 personality ptr @__gxx_personality_v0 {
  %5 = alloca ptr, align 8
  %6 = alloca i32, align 4
  %7 = alloca i32, align 4
  %8 = alloca i32, align 4
  %9 = alloca i64, align 8
  %10 = alloca ptr, align 8
  %11 = alloca i32, align 4
  %12 = alloca i32, align 4
  %13 = alloca i32, align 4
  %14 = alloca ptr, align 8
  %15 = alloca ptr, align 8
  %16 = alloca i32, align 4
  store i32 %0, ptr %11, align 4
  store i32 %1, ptr %12, align 4
  store i32 %2, ptr %13, align 4
  store ptr %3, ptr %14, align 8
  %17 = call noalias noundef nonnull ptr @_Znwm(i64 noundef 72) #13
  %18 = load i32, ptr %11, align 4
  %19 = load i32, ptr %12, align 4
  %20 = load i32, ptr %13, align 4
  %21 = load ptr, ptr %14, align 8
  %22 = icmp ne ptr %21, null
  br i1 %22, label %23, label %27

23:                                               ; preds = %4
  %24 = load ptr, ptr %14, align 8
  %25 = getelementptr inbounds nuw %struct.__ncnn_allocator_t, ptr %24, i32 0, i32 0
  %26 = load ptr, ptr %25, align 8
  br label %28

27:                                               ; preds = %4
  br label %28

28:                                               ; preds = %27, %23
  %29 = phi ptr [ %26, %23 ], [ null, %27 ]
  store ptr %17, ptr %5, align 8
  store i32 %18, ptr %6, align 4
  store i32 %19, ptr %7, align 4
  store i32 %20, ptr %8, align 4
  store i64 4, ptr %9, align 8
  store ptr %29, ptr %10, align 8
  %30 = load ptr, ptr %5, align 8
  store ptr null, ptr %30, align 8
  %31 = getelementptr inbounds nuw %"class.ncnn::Mat", ptr %30, i32 0, i32 1
  store ptr null, ptr %31, align 8
  %32 = getelementptr inbounds nuw %"class.ncnn::Mat", ptr %30, i32 0, i32 2
  store i64 0, ptr %32, align 8
  %33 = getelementptr inbounds nuw %"class.ncnn::Mat", ptr %30, i32 0, i32 3
  store i32 0, ptr %33, align 8
  %34 = getelementptr inbounds nuw %"class.ncnn::Mat", ptr %30, i32 0, i32 4
  store ptr null, ptr %34, align 8
  %35 = getelementptr inbounds nuw %"class.ncnn::Mat", ptr %30, i32 0, i32 5
  store i32 0, ptr %35, align 8
  %36 = getelementptr inbounds nuw %"class.ncnn::Mat", ptr %30, i32 0, i32 6
  store i32 0, ptr %36, align 4
  %37 = getelementptr inbounds nuw %"class.ncnn::Mat", ptr %30, i32 0, i32 7
  store i32 0, ptr %37, align 8
  %38 = getelementptr inbounds nuw %"class.ncnn::Mat", ptr %30, i32 0, i32 8
  store i32 0, ptr %38, align 4
  %39 = getelementptr inbounds nuw %"class.ncnn::Mat", ptr %30, i32 0, i32 9
  store i32 0, ptr %39, align 8
  %40 = getelementptr inbounds nuw %"class.ncnn::Mat", ptr %30, i32 0, i32 10
  store i64 0, ptr %40, align 8
  %41 = load i32, ptr %6, align 4
  %42 = load i32, ptr %7, align 4
  %43 = load i32, ptr %8, align 4
  %44 = load i64, ptr %9, align 8
  %45 = load ptr, ptr %10, align 8
  invoke void @_ZN4ncnn3Mat6createEiiimPNS_9AllocatorE(ptr noundef nonnull align 8 dereferenceable(72) %30, i32 noundef %41, i32 noundef %42, i32 noundef %43, i64 noundef %44, ptr noundef %45)
          to label %46 unwind label %48

46:                                               ; preds = %28
  br label %47

47:                                               ; preds = %46
  ret ptr %17

48:                                               ; preds = %28
  %49 = landingpad { ptr, i32 }
          cleanup
  %50 = extractvalue { ptr, i32 } %49, 0
  store ptr %50, ptr %15, align 8
  %51 = extractvalue { ptr, i32 } %49, 1
  store i32 %51, ptr %16, align 4
  call void @_ZdlPvm(ptr noundef %17, i64 noundef 72) #14
  br label %52

52:                                               ; preds = %48
  %53 = load ptr, ptr %15, align 8
  %54 = load i32, ptr %16, align 4
  %55 = insertvalue { ptr, i32 } poison, ptr %53, 0
  %56 = insertvalue { ptr, i32 } %55, i32 %54, 1
  resume { ptr, i32 } %56
}