; Function Attrs: mustprogress uwtable
define hidden noundef nonnull ptr @ncnn_mat_create_3d(i32 noundef %0, i32 noundef %1, i32 noundef %2, ptr noundef readonly %3) local_unnamed_addr #1 personality ptr @__gxx_personality_v0 {
  %5 = tail call noalias noundef nonnull dereferenceable(72) ptr @_Znwm(i64 noundef 72) #24
  %.not = icmp eq ptr %3, null
  br i1 %.not, label %8, label %6

6:                                                ; preds = %4
  %7 = load ptr, ptr %3, align 8
  br label %8

8:                                                ; preds = %4, %6
  %9 = phi ptr [ %7, %6 ], [ null, %4 ]
  %10 = getelementptr inbounds nuw i8, ptr %5, i64 32
  %11 = getelementptr inbounds nuw i8, ptr %5, i64 64
  store i64 0, ptr %11, align 8
  tail call void @llvm.memset.p0.i64(ptr noundef nonnull align 8 dereferenceable(28) %5, i8 0, i64 28, i1 false)
  tail call void @llvm.memset.p0.i64(ptr noundef nonnull align 8 dereferenceable(28) %10, i8 0, i64 28, i1 false)
  invoke void @_ZN4ncnn3Mat6createEiiimPNS_9AllocatorE(ptr noundef nonnull align 8 dereferenceable(72) %5, i32 noundef %0, i32 noundef %1, i32 noundef %2, i64 noundef 4, ptr noundef %9)
          to label %12 unwind label %13

12:                                               ; preds = %8
  ret ptr %5

13:                                               ; preds = %8
  %14 = landingpad { ptr, i32 }
          cleanup
  tail call void @_ZdlPvm(ptr noundef nonnull %5, i64 noundef 72) #25
  resume { ptr, i32 } %14
}